target datalayout = "e-m:e-p270:32:32-p271:32:32-p272:64:64-i64:64-i128:128-f80:128-n8:16:32:64-S128"
target triple = "x86_64-pc-linux-gnu"

%struct.nameData = type { [64 x i8] }
%struct.FormData_pg_publication = type { i32, %struct.nameData, i32, i8, i8, i8, i8, i8, i8, i8 }
%struct.HeapTupleData = type { i32, %struct.ItemPointerData, i32, ptr }
%struct.ItemPointerData = type { %struct.BlockIdData, i16 }
%struct.BlockIdData = type { i16, i16 }
%struct.HeapTupleHeaderData = type { %union.anon, %struct.ItemPointerData, i16, i16, i8, [0 x i8] }
%union.anon = type { %struct.HeapTupleFields }
%struct.HeapTupleFields = type { i32, i32, %union.anon.0 }
%union.anon.0 = type { i32 }

@MyDatabaseId = external global i32, align 4
@.str.1 = private unnamed_addr constant [18 x i8] c"publicationcmds.c\00", align 1
@object_access_hook = external global ptr, align 8
@.str.56 = private unnamed_addr constant [54 x i8] c"permission denied to change owner of publication \22%s\22\00", align 1
@.str.57 = private unnamed_addr constant [63 x i8] c"The owner of a FOR ALL TABLES publication must be a superuser.\00", align 1
@__func__.AlterPublicationOwner_internal = private unnamed_addr constant [31 x i8] c"AlterPublicationOwner_internal\00", align 1
@.str.58 = private unnamed_addr constant [69 x i8] c"The owner of a FOR TABLES IN SCHEMA publication must be a superuser.\00", align 1

; Function Attrs: inlinehint nounwind uwtable
define internal ptr @GETSTRUCT(ptr noundef %0) #3 {
  %2 = alloca ptr, align 8
  store ptr %0, ptr %2, align 8
  %3 = load ptr, ptr %2, align 8
  %4 = getelementptr inbounds nuw %struct.HeapTupleData, ptr %3, i32 0, i32 3
  %5 = load ptr, ptr %4, align 8
  %6 = load ptr, ptr %2, align 8
  %7 = getelementptr inbounds nuw %struct.HeapTupleData, ptr %6, i32 0, i32 3
  %8 = load ptr, ptr %7, align 8
  %9 = getelementptr inbounds nuw %struct.HeapTupleHeaderData, ptr %8, i32 0, i32 4
  %10 = load i8, ptr %9, align 2
  %11 = zext i8 %10 to i32
  %12 = sext i32 %11 to i64
  %13 = getelementptr inbounds i8, ptr %5, i64 %12
  ret ptr %13
}

; Function Attrs: nounwind uwtable
define internal void @AlterPublicationOwner_internal(ptr noundef %0, ptr noundef %1, i32 noundef %2) #0 {
  %4 = alloca ptr, align 8
  %5 = alloca ptr, align 8
  %6 = alloca i32, align 4
  %7 = alloca ptr, align 8
  %8 = alloca i32, align 4
  %9 = alloca i32, align 4
  store ptr %0, ptr %4, align 8
  store ptr %1, ptr %5, align 8
  store i32 %2, ptr %6, align 4
  call void @llvm.lifetime.start.p0(i64 8, ptr %7) #10
  %10 = load ptr, ptr %5, align 8
  %11 = call ptr @GETSTRUCT(ptr noundef %10)
  store ptr %11, ptr %7, align 8
  %12 = load ptr, ptr %7, align 8
  %13 = getelementptr inbounds nuw %struct.FormData_pg_publication, ptr %12, i32 0, i32 2
  %14 = load i32, ptr %13, align 4
  %15 = load i32, ptr %6, align 4
  %16 = icmp eq i32 %14, %15
  br i1 %16, label %17, label %18

17:                                               ; preds = %3
  store i32 1, ptr %8, align 4
  br label %116

18:                                               ; preds = %3
  %19 = call zeroext i1 @superuser()
  br i1 %19, label %94, label %20

20:                                               ; preds = %18
  call void @llvm.lifetime.start.p0(i64 4, ptr %9) #10
  %21 = load ptr, ptr %7, align 8
  %22 = getelementptr inbounds nuw %struct.FormData_pg_publication, ptr %21, i32 0, i32 0
  %23 = load i32, ptr %22, align 4
  %24 = call i32 @GetUserId()
  %25 = call zeroext i1 @object_ownercheck(i32 noundef 6104, i32 noundef %23, i32 noundef %24)
  br i1 %25, label %31, label %26

26:                                               ; preds = %20
  %27 = load ptr, ptr %7, align 8
  %28 = getelementptr inbounds nuw %struct.FormData_pg_publication, ptr %27, i32 0, i32 1
  %29 = getelementptr inbounds nuw %struct.nameData, ptr %28, i32 0, i32 0
  %30 = getelementptr inbounds [64 x i8], ptr %29, i64 0, i64 0
  call void @aclcheck_error(i32 noundef 2, i32 noundef 30, ptr noundef %30)
  br label %31

31:                                               ; preds = %26, %20
  %32 = call i32 @GetUserId()
  %33 = load i32, ptr %6, align 4
  call void @check_can_set_role(i32 noundef %32, i32 noundef %33)
  %34 = load i32, ptr @MyDatabaseId, align 4
  %35 = load i32, ptr %6, align 4
  %36 = call i32 @object_aclcheck(i32 noundef 1262, i32 noundef %34, i32 noundef %35, i64 noundef 512)
  store i32 %36, ptr %9, align 4
  %37 = load i32, ptr %9, align 4
  %38 = icmp ne i32 %37, 0
  br i1 %38, label %39, label %43

39:                                               ; preds = %31
  %40 = load i32, ptr %9, align 4
  %41 = load i32, ptr @MyDatabaseId, align 4
  %42 = call ptr @get_database_name(i32 noundef %41)
  call void @aclcheck_error(i32 noundef %40, i32 noundef 9, ptr noundef %42)
  br label %43

43:                                               ; preds = %39, %31
  %44 = load ptr, ptr %7, align 8
  %45 = getelementptr inbounds nuw %struct.FormData_pg_publication, ptr %44, i32 0, i32 3
  %46 = load i8, ptr %45, align 4, !range !4, !noundef !5
  %47 = trunc i8 %46 to i1
  br i1 %47, label %48, label %68

48:                                               ; preds = %43
  %49 = load i32, ptr %6, align 4
  %50 = call zeroext i1 @superuser_arg(i32 noundef %49)
  br i1 %50, label %68, label %51

51:                                               ; preds = %48
  br label %52

52:                                               ; preds = %51
  br i1 true, label %53, label %55

53:                                               ; preds = %52
  %54 = call zeroext i1 @errstart_cold(i32 noundef 21, ptr noundef null) #11
  br i1 %54, label %57, label %65

55:                                               ; preds = %52
  %56 = call zeroext i1 @errstart(i32 noundef 21, ptr noundef null)
  br i1 %56, label %57, label %65

57:                                               ; preds = %55, %53
  %58 = call i32 @errcode(i32 noundef 16797828)
  %59 = load ptr, ptr %7, align 8
  %60 = getelementptr inbounds nuw %struct.FormData_pg_publication, ptr %59, i32 0, i32 1
  %61 = getelementptr inbounds nuw %struct.nameData, ptr %60, i32 0, i32 0
  %62 = getelementptr inbounds [64 x i8], ptr %61, i64 0, i64 0
  %63 = call i32 (ptr, ...) @errmsg(ptr noundef @.str.56, ptr noundef %62)
  %64 = call i32 (ptr, ...) @errhint(ptr noundef @.str.57)
  call void @errfinish(ptr noundef @.str.1, i32 noundef 1988, ptr noundef @__func__.AlterPublicationOwner_internal)
  br label %65

65:                                               ; preds = %57, %55, %53
  unreachable

66:                                               ; No predecessors!
  br label %67

67:                                               ; preds = %66
  br label %68

68:                                               ; preds = %67, %48, %43
  %69 = load i32, ptr %6, align 4
  %70 = call zeroext i1 @superuser_arg(i32 noundef %69)
  br i1 %70, label %93, label %71

71:                                               ; preds = %68
  %72 = load ptr, ptr %7, align 8
  %73 = getelementptr inbounds nuw %struct.FormData_pg_publication, ptr %72, i32 0, i32 0
  %74 = load i32, ptr %73, align 4
  %75 = call zeroext i1 @is_schema_publication(i32 noundef %74)
  br i1 %75, label %76, label %93

76:                                               ; preds = %71
  br label %77

77:                                               ; preds = %76
  br i1 true, label %78, label %80

78:                                               ; preds = %77
  %79 = call zeroext i1 @errstart_cold(i32 noundef 21, ptr noundef null) #11
  br i1 %79, label %82, label %90

80:                                               ; preds = %77
  %81 = call zeroext i1 @errstart(i32 noundef 21, ptr noundef null)
  br i1 %81, label %82, label %90

82:                                               ; preds = %80, %78
  %83 = call i32 @errcode(i32 noundef 16797828)
  %84 = load ptr, ptr %7, align 8
  %85 = getelementptr inbounds nuw %struct.FormData_pg_publication, ptr %84, i32 0, i32 1
  %86 = getelementptr inbounds nuw %struct.nameData, ptr %85, i32 0, i32 0
  %87 = getelementptr inbounds [64 x i8], ptr %86, i64 0, i64 0
  %88 = call i32 (ptr, ...) @errmsg(ptr noundef @.str.56, ptr noundef %87)
  %89 = call i32 (ptr, ...) @errhint(ptr noundef @.str.58)
  call void @errfinish(ptr noundef @.str.1, i32 noundef 1995, ptr noundef @__func__.AlterPublicationOwner_internal)
  br label %90

90:                                               ; preds = %82, %80, %78
  unreachable

91:                                               ; No predecessors!
  br label %92

92:                                               ; preds = %91
  br label %93

93:                                               ; preds = %92, %71, %68
  call void @llvm.lifetime.end.p0(i64 4, ptr %9) #10
  br label %94

94:                                               ; preds = %93, %18
  %95 = load i32, ptr %6, align 4
  %96 = load ptr, ptr %7, align 8
  %97 = getelementptr inbounds nuw %struct.FormData_pg_publication, ptr %96, i32 0, i32 2
  store i32 %95, ptr %97, align 4
  %98 = load ptr, ptr %4, align 8
  %99 = load ptr, ptr %5, align 8
  %100 = getelementptr inbounds nuw %struct.HeapTupleData, ptr %99, i32 0, i32 1
  %101 = load ptr, ptr %5, align 8
  call void @CatalogTupleUpdate(ptr noundef %98, ptr noundef %100, ptr noundef %101)
  %102 = load ptr, ptr %7, align 8
  %103 = getelementptr inbounds nuw %struct.FormData_pg_publication, ptr %102, i32 0, i32 0
  %104 = load i32, ptr %103, align 4
  %105 = load i32, ptr %6, align 4
  call void @changeDependencyOnOwner(i32 noundef 6104, i32 noundef %104, i32 noundef %105)
  br label %106

106:                                              ; preds = %94
  %107 = load ptr, ptr @object_access_hook, align 8
  %108 = icmp ne ptr %107, null
  br i1 %108, label %109, label %113

109:                                              ; preds = %106
  %110 = load ptr, ptr %7, align 8
  %111 = getelementptr inbounds nuw %struct.FormData_pg_publication, ptr %110, i32 0, i32 0
  %112 = load i32, ptr %111, align 4
  call void @RunObjectPostAlterHook(i32 noundef 6104, i32 noundef %112, i32 noundef 0, i32 noundef 0, i1 noundef zeroext false)
  br label %113

113:                                              ; preds = %109, %106
  br label %114

114:                                              ; preds = %113
  br label %115

115:                                              ; preds = %114
  store i32 0, ptr %8, align 4
  br label %116

116:                                              ; preds = %115, %17
  call void @llvm.lifetime.end.p0(i64 8, ptr %7) #10
  %117 = load i32, ptr %8, align 4
  switch i32 %117, label %119 [
    i32 0, label %118
    i32 1, label %118
  ]

118:                                              ; preds = %116, %116
  ret void

119:                                              ; preds = %116
  unreachable
}