; Function Attrs: nounwind uwtable
define internal fastcc void @AlterPublicationOwner_internal(ptr noundef %0, ptr noundef nonnull %1, i32 noundef %2) unnamed_addr #0 {
  %4 = getelementptr i8, ptr %1, i64 16
  %.val = load ptr, ptr %4, align 8
  %5 = getelementptr inbounds nuw i8, ptr %.val, i64 22
  %6 = load i8, ptr %5, align 2
  %7 = zext i8 %6 to i64
  %8 = getelementptr inbounds nuw i8, ptr %.val, i64 %7
  %9 = getelementptr inbounds nuw i8, ptr %8, i64 68
  %10 = load i32, ptr %9, align 4
  %11 = icmp eq i32 %10, %2
  br i1 %11, label %56, label %12

12:                                               ; preds = %3
  %13 = tail call zeroext i1 @superuser() #8
  br i1 %13, label %50, label %14

14:                                               ; preds = %12
  %15 = load i32, ptr %8, align 4
  %16 = tail call i32 @GetUserId() #8
  %17 = tail call zeroext i1 @object_ownercheck(i32 noundef 6104, i32 noundef %15, i32 noundef %16) #8
  br i1 %17, label %20, label %18

18:                                               ; preds = %14
  %19 = getelementptr inbounds nuw i8, ptr %8, i64 4
  tail call void @aclcheck_error(i32 noundef 2, i32 noundef 30, ptr noundef nonnull %19) #8
  br label %20

20:                                               ; preds = %18, %14
  %21 = tail call i32 @GetUserId() #8
  tail call void @check_can_set_role(i32 noundef %21, i32 noundef %2) #8
  %22 = load i32, ptr @MyDatabaseId, align 4
  %23 = tail call i32 @object_aclcheck(i32 noundef 1262, i32 noundef %22, i32 noundef %2, i64 noundef 512) #8
  %.not = icmp eq i32 %23, 0
  br i1 %.not, label %27, label %24

24:                                               ; preds = %20
  %25 = load i32, ptr @MyDatabaseId, align 4
  %26 = tail call ptr @get_database_name(i32 noundef %25) #8
  tail call void @aclcheck_error(i32 noundef %23, i32 noundef 9, ptr noundef %26) #8
  br label %27

27:                                               ; preds = %24, %20
  %28 = getelementptr inbounds nuw i8, ptr %8, i64 72
  %29 = load i8, ptr %28, align 4, !range !4, !noundef !5
  %30 = trunc nuw i8 %29 to i1
  br i1 %30, label %31, label %39

31:                                               ; preds = %27
  %32 = tail call zeroext i1 @superuser_arg(i32 noundef %2) #8
  br i1 %32, label %39, label %33

33:                                               ; preds = %31
  %34 = tail call zeroext i1 @errstart_cold(i32 noundef 21, ptr noundef null) #9
  tail call void @llvm.assume(i1 %34)
  %35 = tail call i32 @errcode(i32 noundef 16797828) #8
  %36 = getelementptr inbounds nuw i8, ptr %8, i64 4
  %37 = tail call i32 (ptr, ...) @errmsg(ptr noundef nonnull @.str.56, ptr noundef nonnull %36) #8
  %38 = tail call i32 (ptr, ...) @errhint(ptr noundef nonnull @.str.57) #8
  tail call void @errfinish(ptr noundef nonnull @.str.1, i32 noundef 1988, ptr noundef nonnull @__func__.AlterPublicationOwner_internal) #8
  unreachable

39:                                               ; preds = %31, %27
  %40 = tail call zeroext i1 @superuser_arg(i32 noundef %2) #8
  br i1 %40, label %50, label %41

41:                                               ; preds = %39
  %42 = load i32, ptr %8, align 4
  %43 = tail call zeroext i1 @is_schema_publication(i32 noundef %42) #8
  br i1 %43, label %44, label %50

44:                                               ; preds = %41
  %45 = tail call zeroext i1 @errstart_cold(i32 noundef 21, ptr noundef null) #9
  tail call void @llvm.assume(i1 %45)
  %46 = tail call i32 @errcode(i32 noundef 16797828) #8
  %47 = getelementptr inbounds nuw i8, ptr %8, i64 4
  %48 = tail call i32 (ptr, ...) @errmsg(ptr noundef nonnull @.str.56, ptr noundef nonnull %47) #8
  %49 = tail call i32 (ptr, ...) @errhint(ptr noundef nonnull @.str.58) #8
  tail call void @errfinish(ptr noundef nonnull @.str.1, i32 noundef 1995, ptr noundef nonnull @__func__.AlterPublicationOwner_internal) #8
  unreachable

50:                                               ; preds = %39, %41, %12
  store i32 %2, ptr %9, align 4
  %51 = getelementptr inbounds nuw i8, ptr %1, i64 4
  tail call void @CatalogTupleUpdate(ptr noundef %0, ptr noundef nonnull %51, ptr noundef nonnull %1) #8
  %52 = load i32, ptr %8, align 4
  tail call void @changeDependencyOnOwner(i32 noundef 6104, i32 noundef %52, i32 noundef %2) #8
  %53 = load ptr, ptr @object_access_hook, align 8
  %.not23 = icmp eq ptr %53, null
  br i1 %.not23, label %56, label %54

54:                                               ; preds = %50
  %55 = load i32, ptr %8, align 4
  tail call void @RunObjectPostAlterHook(i32 noundef 6104, i32 noundef %55, i32 noundef 0, i32 noundef 0, i1 noundef zeroext false) #8
  br label %56

56:                                               ; preds = %50, %54, %3
  ret void
}